target datalayout = "e-m:e-p270:32:32-p271:32:32-p272:64:64-i64:64-i128:128-f80:128-n8:16:32:64-S128"
target triple = "x86_64-pc-linux-gnu"

@crv_len = internal global i64 0, align 8
@.str = private unnamed_addr constant [25 x i8] c"../openssl/test/ectest.c\00", align 1
@.str.1 = private unnamed_addr constant [51 x i8] c"curves = OPENSSL_malloc(sizeof(*curves) * crv_len)\00", align 1
@curves = internal global ptr null, align 8
@.str.2 = private unnamed_addr constant [39 x i8] c"EC_get_builtin_curves(curves, crv_len)\00", align 1
@.str.3 = private unnamed_addr constant [15 x i8] c"parameter_test\00", align 1
@.str.4 = private unnamed_addr constant [20 x i8] c"ossl_parameter_test\00", align 1
@.str.5 = private unnamed_addr constant [20 x i8] c"cofactor_range_test\00", align 1
@.str.6 = private unnamed_addr constant [17 x i8] c"cardinality_test\00", align 1
@.str.7 = private unnamed_addr constant [18 x i8] c"prime_field_tests\00", align 1
@.str.8 = private unnamed_addr constant [27 x i8] c"hybrid_point_encoding_test\00", align 1
@.str.9 = private unnamed_addr constant [18 x i8] c"char2_field_tests\00", align 1
@.str.10 = private unnamed_addr constant [17 x i8] c"char2_curve_test\00", align 1
@.str.11 = private unnamed_addr constant [18 x i8] c"nistp_single_test\00", align 1
@.str.12 = private unnamed_addr constant [20 x i8] c"internal_curve_test\00", align 1
@.str.13 = private unnamed_addr constant [27 x i8] c"internal_curve_test_method\00", align 1
@.str.14 = private unnamed_addr constant [17 x i8] c"group_field_test\00", align 1
@.str.15 = private unnamed_addr constant [23 x i8] c"check_named_curve_test\00", align 1
@.str.16 = private unnamed_addr constant [30 x i8] c"check_named_curve_lookup_test\00", align 1
@.str.17 = private unnamed_addr constant [37 x i8] c"check_ec_key_field_public_range_test\00", align 1
@.str.18 = private unnamed_addr constant [36 x i8] c"check_named_curve_from_ecparameters\00", align 1
@.str.19 = private unnamed_addr constant [24 x i8] c"ec_point_hex2point_test\00", align 1
@.str.20 = private unnamed_addr constant [22 x i8] c"custom_generator_test\00", align 1
@.str.21 = private unnamed_addr constant [19 x i8] c"custom_params_test\00", align 1
@.str.22 = private unnamed_addr constant [22 x i8] c"ec_d2i_publickey_test\00", align 1

; Function Attrs: nounwind uwtable
define dso_local i32 @setup_tests() #0 {
  %1 = alloca i32, align 4
  %2 = call i64 @EC_get_builtin_curves(ptr noundef null, i64 noundef 0)
  store i64 %2, ptr @crv_len, align 8, !tbaa !4
  %3 = load i64, ptr @crv_len, align 8, !tbaa !4
  %4 = mul i64 16, %3
  %5 = call noalias ptr @CRYPTO_malloc(i64 noundef %4, ptr noundef @.str, i32 noundef 3125)
  store ptr %5, ptr @curves, align 8, !tbaa !8
  %6 = call i32 @test_ptr(ptr noundef @.str, i32 noundef 3125, ptr noundef @.str.1, ptr noundef %5)
  %7 = icmp ne i32 %6, 0
  br i1 %7, label %8, label %16

8:                                                ; preds = %0
  %9 = load ptr, ptr @curves, align 8, !tbaa !8
  %10 = load i64, ptr @crv_len, align 8, !tbaa !4
  %11 = call i64 @EC_get_builtin_curves(ptr noundef %9, i64 noundef %10)
  %12 = icmp ne i64 %11, 0
  %13 = zext i1 %12 to i32
  %14 = call i32 @test_true(ptr noundef @.str, i32 noundef 3126, ptr noundef @.str.2, i32 noundef %13)
  %15 = icmp ne i32 %14, 0
  br i1 %15, label %17, label %16

16:                                               ; preds = %8, %0
  store i32 0, ptr %1, align 4
  br label %38

17:                                               ; preds = %8
  call void @add_test(ptr noundef @.str.3, ptr noundef @parameter_test)
  call void @add_test(ptr noundef @.str.4, ptr noundef @ossl_parameter_test)
  call void @add_test(ptr noundef @.str.5, ptr noundef @cofactor_range_test)
  %18 = load i64, ptr @crv_len, align 8, !tbaa !4
  %19 = trunc i64 %18 to i32
  call void @add_all_tests(ptr noundef @.str.6, ptr noundef @cardinality_test, i32 noundef %19, i32 noundef 1)
  call void @add_test(ptr noundef @.str.7, ptr noundef @prime_field_tests)
  call void @add_test(ptr noundef @.str.8, ptr noundef @hybrid_point_encoding_test)
  call void @add_test(ptr noundef @.str.9, ptr noundef @char2_field_tests)
  call void @add_all_tests(ptr noundef @.str.10, ptr noundef @char2_curve_test, i32 noundef 10, i32 noundef 1)
  call void @add_all_tests(ptr noundef @.str.11, ptr noundef @nistp_single_test, i32 noundef 3, i32 noundef 1)
  %20 = load i64, ptr @crv_len, align 8, !tbaa !4
  %21 = trunc i64 %20 to i32
  call void @add_all_tests(ptr noundef @.str.12, ptr noundef @internal_curve_test, i32 noundef %21, i32 noundef 1)
  %22 = load i64, ptr @crv_len, align 8, !tbaa !4
  %23 = trunc i64 %22 to i32
  call void @add_all_tests(ptr noundef @.str.13, ptr noundef @internal_curve_test_method, i32 noundef %23, i32 noundef 1)
  call void @add_test(ptr noundef @.str.14, ptr noundef @group_field_test)
  %24 = load i64, ptr @crv_len, align 8, !tbaa !4
  %25 = trunc i64 %24 to i32
  call void @add_all_tests(ptr noundef @.str.15, ptr noundef @check_named_curve_test, i32 noundef %25, i32 noundef 1)
  %26 = load i64, ptr @crv_len, align 8, !tbaa !4
  %27 = trunc i64 %26 to i32
  call void @add_all_tests(ptr noundef @.str.16, ptr noundef @check_named_curve_lookup_test, i32 noundef %27, i32 noundef 1)
  %28 = load i64, ptr @crv_len, align 8, !tbaa !4
  %29 = trunc i64 %28 to i32
  call void @add_all_tests(ptr noundef @.str.17, ptr noundef @check_ec_key_field_public_range_test, i32 noundef %29, i32 noundef 1)
  %30 = load i64, ptr @crv_len, align 8, !tbaa !4
  %31 = trunc i64 %30 to i32
  call void @add_all_tests(ptr noundef @.str.18, ptr noundef @check_named_curve_from_ecparameters, i32 noundef %31, i32 noundef 1)
  %32 = load i64, ptr @crv_len, align 8, !tbaa !4
  %33 = trunc i64 %32 to i32
  call void @add_all_tests(ptr noundef @.str.19, ptr noundef @ec_point_hex2point_test, i32 noundef %33, i32 noundef 1)
  %34 = load i64, ptr @crv_len, align 8, !tbaa !4
  %35 = trunc i64 %34 to i32
  call void @add_all_tests(ptr noundef @.str.20, ptr noundef @custom_generator_test, i32 noundef %35, i32 noundef 1)
  %36 = load i64, ptr @crv_len, align 8, !tbaa !4
  %37 = trunc i64 %36 to i32
  call void @add_all_tests(ptr noundef @.str.21, ptr noundef @custom_params_test, i32 noundef %37, i32 noundef 1)
  call void @add_test(ptr noundef @.str.22, ptr noundef @ec_d2i_publickey_test)
  store i32 1, ptr %1, align 4
  br label %38

38:                                               ; preds = %17, %16
  %39 = load i32, ptr %1, align 4
  ret i32 %39
}