; Function Attrs: nounwind uwtable
define dso_local range(i32 0, 2) i32 @setup_tests() local_unnamed_addr #0 {
  %1 = tail call i64 @EC_get_builtin_curves(ptr noundef null, i64 noundef 0) #7
  store i64 %1, ptr @crv_len, align 8, !tbaa !4
  %2 = shl i64 %1, 4
  %3 = tail call noalias ptr @CRYPTO_malloc(i64 noundef %2, ptr noundef nonnull @.str, i32 noundef 3125) #7
  store ptr %3, ptr @curves, align 8, !tbaa !8
  %4 = tail call i32 @test_ptr(ptr noundef nonnull @.str, i32 noundef 3125, ptr noundef nonnull @.str.1, ptr noundef %3) #7
  %.not = icmp eq i32 %4, 0
  br i1 %.not, label %33, label %5

5:                                                ; preds = %0
  %6 = load ptr, ptr @curves, align 8, !tbaa !8
  %7 = load i64, ptr @crv_len, align 8, !tbaa !4
  %8 = tail call i64 @EC_get_builtin_curves(ptr noundef %6, i64 noundef %7) #7
  %9 = icmp ne i64 %8, 0
  %10 = zext i1 %9 to i32
  %11 = tail call i32 @test_true(ptr noundef nonnull @.str, i32 noundef 3126, ptr noundef nonnull @.str.2, i32 noundef %10) #7
  %.not1 = icmp eq i32 %11, 0
  br i1 %.not1, label %33, label %12

12:                                               ; preds = %5
  tail call void @add_test(ptr noundef nonnull @.str.3, ptr noundef nonnull @parameter_test) #7
  tail call void @add_test(ptr noundef nonnull @.str.4, ptr noundef nonnull @ossl_parameter_test) #7
  tail call void @add_test(ptr noundef nonnull @.str.5, ptr noundef nonnull @cofactor_range_test) #7
  %13 = load i64, ptr @crv_len, align 8, !tbaa !4
  %14 = trunc i64 %13 to i32
  tail call void @add_all_tests(ptr noundef nonnull @.str.6, ptr noundef nonnull @cardinality_test, i32 noundef %14, i32 noundef 1) #7
  tail call void @add_test(ptr noundef nonnull @.str.7, ptr noundef nonnull @prime_field_tests) #7
  tail call void @add_test(ptr noundef nonnull @.str.8, ptr noundef nonnull @hybrid_point_encoding_test) #7
  tail call void @add_test(ptr noundef nonnull @.str.9, ptr noundef nonnull @char2_field_tests) #7
  tail call void @add_all_tests(ptr noundef nonnull @.str.10, ptr noundef nonnull @char2_curve_test, i32 noundef 10, i32 noundef 1) #7
  tail call void @add_all_tests(ptr noundef nonnull @.str.11, ptr noundef nonnull @nistp_single_test, i32 noundef 3, i32 noundef 1) #7
  %15 = load i64, ptr @crv_len, align 8, !tbaa !4
  %16 = trunc i64 %15 to i32
  tail call void @add_all_tests(ptr noundef nonnull @.str.12, ptr noundef nonnull @internal_curve_test, i32 noundef %16, i32 noundef 1) #7
  %17 = load i64, ptr @crv_len, align 8, !tbaa !4
  %18 = trunc i64 %17 to i32
  tail call void @add_all_tests(ptr noundef nonnull @.str.13, ptr noundef nonnull @internal_curve_test_method, i32 noundef %18, i32 noundef 1) #7
  tail call void @add_test(ptr noundef nonnull @.str.14, ptr noundef nonnull @group_field_test) #7
  %19 = load i64, ptr @crv_len, align 8, !tbaa !4
  %20 = trunc i64 %19 to i32
  tail call void @add_all_tests(ptr noundef nonnull @.str.15, ptr noundef nonnull @check_named_curve_test, i32 noundef %20, i32 noundef 1) #7
  %21 = load i64, ptr @crv_len, align 8, !tbaa !4
  %22 = trunc i64 %21 to i32
  tail call void @add_all_tests(ptr noundef nonnull @.str.16, ptr noundef nonnull @check_named_curve_lookup_test, i32 noundef %22, i32 noundef 1) #7
  %23 = load i64, ptr @crv_len, align 8, !tbaa !4
  %24 = trunc i64 %23 to i32
  tail call void @add_all_tests(ptr noundef nonnull @.str.17, ptr noundef nonnull @check_ec_key_field_public_range_test, i32 noundef %24, i32 noundef 1) #7
  %25 = load i64, ptr @crv_len, align 8, !tbaa !4
  %26 = trunc i64 %25 to i32
  tail call void @add_all_tests(ptr noundef nonnull @.str.18, ptr noundef nonnull @check_named_curve_from_ecparameters, i32 noundef %26, i32 noundef 1) #7
  %27 = load i64, ptr @crv_len, align 8, !tbaa !4
  %28 = trunc i64 %27 to i32
  tail call void @add_all_tests(ptr noundef nonnull @.str.19, ptr noundef nonnull @ec_point_hex2point_test, i32 noundef %28, i32 noundef 1) #7
  %29 = load i64, ptr @crv_len, align 8, !tbaa !4
  %30 = trunc i64 %29 to i32
  tail call void @add_all_tests(ptr noundef nonnull @.str.20, ptr noundef nonnull @custom_generator_test, i32 noundef %30, i32 noundef 1) #7
  %31 = load i64, ptr @crv_len, align 8, !tbaa !4
  %32 = trunc i64 %31 to i32
  tail call void @add_all_tests(ptr noundef nonnull @.str.21, ptr noundef nonnull @custom_params_test, i32 noundef %32, i32 noundef 1) #7
  tail call void @add_test(ptr noundef nonnull @.str.22, ptr noundef nonnull @ec_d2i_publickey_test) #7
  br label %33

33:                                               ; preds = %0, %5, %12
  %.0 = phi i32 [ 1, %12 ], [ 0, %5 ], [ 0, %0 ]
  ret i32 %.0
}